target datalayout = "e-m:e-p270:32:32-p271:32:32-p272:64:64-i64:64-i128:128-f80:128-n8:16:32:64-S128"
target triple = "x86_64-pc-linux-gnu"

%"class.icu_77::UnicodeString" = type { %"class.icu_77::Replaceable", %"union.icu_77::UnicodeString::StackBufferOrFields" }
%"class.icu_77::Replaceable" = type { %"class.icu_77::UObject" }
%"class.icu_77::UObject" = type { ptr }
%"union.icu_77::UnicodeString::StackBufferOrFields" = type { %struct.anon.0, [32 x i8] }
%struct.anon.0 = type { i16, i32, i32, ptr }
%"class.icu_77::CollationDataBuilder" = type { %"class.icu_77::UObject", ptr, ptr, ptr, ptr, %"class.icu_77::UVector32", %"class.icu_77::UVector64", %"class.icu_77::UVector", %"class.icu_77::UnicodeSet", %"class.icu_77::UnicodeString", i32, [4 x i8], %"class.icu_77::UnicodeSet", i8, i8, i8, ptr, ptr }
%"class.icu_77::UVector32" = type { %"class.icu_77::UObject", i32, i32, i32, ptr }
%"class.icu_77::UVector64" = type { %"class.icu_77::UObject", i32, i32, i32, ptr }
%"class.icu_77::UVector" = type { %"class.icu_77::UObject", i32, i32, ptr, ptr, ptr }
%"class.icu_77::UnicodeSet" = type <{ %"class.icu_77::UnicodeFilter", ptr, i32, i32, i8, [7 x i8], ptr, ptr, i32, [4 x i8], ptr, i32, [4 x i8], ptr, ptr, [25 x i32], [4 x i8] }>
%"class.icu_77::UnicodeFilter" = type { %"class.icu_77::UnicodeFunctor", %"class.icu_77::UnicodeMatcher" }
%"class.icu_77::UnicodeFunctor" = type { %"class.icu_77::UObject" }
%"class.icu_77::UnicodeMatcher" = type { ptr }

; Function Attrs: mustprogress nounwind uwtable
define linkonce_odr noundef i32 @_ZN6icu_779Collation21makeLongSecondaryCE32Ej(i32 noundef %0) #1 comdat align 2 {
  %2 = alloca i32, align 4
  store i32 %0, ptr %2, align 4, !tbaa !57
  %3 = load i32, ptr %2, align 4, !tbaa !57
  %4 = or i32 %3, 192
  %5 = or i32 %4, 2
  ret i32 %5
}

; Function Attrs: mustprogress nounwind uwtable
define linkonce_odr noundef i32 @_ZN6icu_779Collation19makeLongPrimaryCE32Ej(i32 noundef %0) #1 comdat align 2 {
  %2 = alloca i32, align 4
  store i32 %0, ptr %2, align 4, !tbaa !57
  %3 = load i32, ptr %2, align 4, !tbaa !57
  %4 = or i32 %3, 193
  ret i32 %4
}

; Function Attrs: mustprogress uwtable
define noundef i32 @_ZN6icu_7720CollationDataBuilder17encodeOneCEAsCE32El(i64 noundef %0) #4 align 2 {
  %2 = alloca i32, align 4
  %3 = alloca i64, align 8
  %4 = alloca i32, align 4
  %5 = alloca i32, align 4
  %6 = alloca i32, align 4
  %7 = alloca i32, align 4
  store i64 %0, ptr %3, align 8, !tbaa !100
  call void @llvm.lifetime.start.p0(i64 4, ptr %4) #11
  %8 = load i64, ptr %3, align 8, !tbaa !100
  %9 = ashr i64 %8, 32
  %10 = trunc i64 %9 to i32
  store i32 %10, ptr %4, align 4, !tbaa !57
  call void @llvm.lifetime.start.p0(i64 4, ptr %5) #11
  %11 = load i64, ptr %3, align 8, !tbaa !100
  %12 = trunc i64 %11 to i32
  store i32 %12, ptr %5, align 4, !tbaa !57
  call void @llvm.lifetime.start.p0(i64 4, ptr %6) #11
  %13 = load i64, ptr %3, align 8, !tbaa !100
  %14 = and i64 %13, 65535
  %15 = trunc i64 %14 to i32
  store i32 %15, ptr %6, align 4, !tbaa !57
  %16 = load i64, ptr %3, align 8, !tbaa !100
  %17 = and i64 %16, 281470698455295
  %18 = icmp eq i64 %17, 0
  br i1 %18, label %19, label %27

19:                                               ; preds = %1
  %20 = load i32, ptr %4, align 4, !tbaa !57
  %21 = load i32, ptr %5, align 4, !tbaa !57
  %22 = lshr i32 %21, 16
  %23 = or i32 %20, %22
  %24 = load i32, ptr %6, align 4, !tbaa !57
  %25 = lshr i32 %24, 8
  %26 = or i32 %23, %25
  store i32 %26, ptr %2, align 4
  store i32 1, ptr %7, align 4
  br label %47

27:                                               ; preds = %1
  %28 = load i64, ptr %3, align 8, !tbaa !100
  %29 = and i64 %28, 1099511627775
  %30 = icmp eq i64 %29, 83887360
  br i1 %30, label %31, label %34

31:                                               ; preds = %27
  %32 = load i32, ptr %4, align 4, !tbaa !57
  %33 = call noundef i32 @_ZN6icu_779Collation19makeLongPrimaryCE32Ej(i32 noundef %32)
  store i32 %33, ptr %2, align 4
  store i32 1, ptr %7, align 4
  br label %47

34:                                               ; preds = %27
  %35 = load i32, ptr %4, align 4, !tbaa !57
  %36 = icmp eq i32 %35, 0
  br i1 %36, label %37, label %44

37:                                               ; preds = %34
  %38 = load i32, ptr %6, align 4, !tbaa !57
  %39 = and i32 %38, 255
  %40 = icmp eq i32 %39, 0
  br i1 %40, label %41, label %44

41:                                               ; preds = %37
  %42 = load i32, ptr %5, align 4, !tbaa !57
  %43 = call noundef i32 @_ZN6icu_779Collation21makeLongSecondaryCE32Ej(i32 noundef %42)
  store i32 %43, ptr %2, align 4
  store i32 1, ptr %7, align 4
  br label %47

44:                                               ; preds = %37, %34
  br label %45

45:                                               ; preds = %44
  br label %46

46:                                               ; preds = %45
  store i32 1, ptr %2, align 4
  store i32 1, ptr %7, align 4
  br label %47

47:                                               ; preds = %46, %41, %31, %19
  call void @llvm.lifetime.end.p0(i64 4, ptr %6) #11
  call void @llvm.lifetime.end.p0(i64 4, ptr %5) #11
  call void @llvm.lifetime.end.p0(i64 4, ptr %4) #11
  %48 = load i32, ptr %2, align 4
  ret i32 %48
}

; Function Attrs: inlinehint mustprogress nounwind uwtable
define internal noundef signext i8 @_ZL9U_FAILURE10UErrorCode(i32 noundef %0) #3 {
  %2 = alloca i32, align 4
  store i32 %0, ptr %2, align 4, !tbaa !97
  %3 = load i32, ptr %2, align 4, !tbaa !97
  %4 = icmp sgt i32 %3, 0
  %5 = zext i1 %4 to i8
  ret i8 %5
}

; Function Attrs: mustprogress uwtable
define noundef i32 @_ZN6icu_7720CollationDataBuilder9encodeCEsEPKliR10UErrorCode(ptr noundef nonnull align 8 dereferenceable(640) %0, ptr noundef %1, i32 noundef %2, ptr noundef nonnull align 4 dereferenceable(4) %3) unnamed_addr #4 align 2 {
  %5 = alloca i32, align 4
  %6 = alloca ptr, align 8
  %7 = alloca ptr, align 8
  %8 = alloca i32, align 4
  %9 = alloca ptr, align 8
  %10 = alloca i64, align 8
  %11 = alloca i64, align 8
  %12 = alloca i32, align 4
  %13 = alloca i32, align 4
  %14 = alloca [31 x i32], align 16
  %15 = alloca i32, align 4
  %16 = alloca i32, align 4
  store ptr %0, ptr %6, align 8, !tbaa !13
  store ptr %1, ptr %7, align 8, !tbaa !93
  store i32 %2, ptr %8, align 4, !tbaa !57
  store ptr %3, ptr %9, align 8, !tbaa !8
  %17 = load ptr, ptr %6, align 8
  %18 = load ptr, ptr %9, align 8, !tbaa !8
  %19 = load i32, ptr %18, align 4, !tbaa !97
  %20 = call noundef signext i8 @_ZL9U_FAILURE10UErrorCode(i32 noundef %19)
  %21 = icmp ne i8 %20, 0
  br i1 %21, label %22, label %23

22:                                               ; preds = %4
  store i32 0, ptr %5, align 4
  br label %141

23:                                               ; preds = %4
  %24 = load i32, ptr %8, align 4, !tbaa !57
  %25 = icmp slt i32 %24, 0
  br i1 %25, label %29, label %26

26:                                               ; preds = %23
  %27 = load i32, ptr %8, align 4, !tbaa !57
  %28 = icmp sgt i32 %27, 31
  br i1 %28, label %29, label %31

29:                                               ; preds = %26, %23
  %30 = load ptr, ptr %9, align 8, !tbaa !8
  store i32 1, ptr %30, align 4, !tbaa !97
  store i32 0, ptr %5, align 4
  br label %141

31:                                               ; preds = %26
  %32 = getelementptr inbounds nuw %"class.icu_77::CollationDataBuilder", ptr %17, i32 0, i32 4
  %33 = load ptr, ptr %32, align 8, !tbaa !99
  %34 = icmp eq ptr %33, null
  br i1 %34, label %40, label %35

35:                                               ; preds = %31
  %36 = getelementptr inbounds nuw %"class.icu_77::CollationDataBuilder", ptr %17, i32 0, i32 4
  %37 = load ptr, ptr %36, align 8, !tbaa !99
  %38 = call signext i8 @utrie2_isFrozen_77(ptr noundef %37)
  %39 = icmp ne i8 %38, 0
  br i1 %39, label %40, label %42

40:                                               ; preds = %35, %31
  %41 = load ptr, ptr %9, align 8, !tbaa !8
  store i32 27, ptr %41, align 4, !tbaa !97
  store i32 0, ptr %5, align 4
  br label %141

42:                                               ; preds = %35
  %43 = load i32, ptr %8, align 4, !tbaa !57
  %44 = icmp eq i32 %43, 0
  br i1 %44, label %45, label %47

45:                                               ; preds = %42
  %46 = call noundef i32 @_ZN6icu_7720CollationDataBuilder17encodeOneCEAsCE32El(i64 noundef 0)
  store i32 %46, ptr %5, align 4
  br label %141

47:                                               ; preds = %42
  %48 = load i32, ptr %8, align 4, !tbaa !57
  %49 = icmp eq i32 %48, 1
  br i1 %49, label %50, label %56

50:                                               ; preds = %47
  %51 = load ptr, ptr %7, align 8, !tbaa !93
  %52 = getelementptr inbounds i64, ptr %51, i64 0
  %53 = load i64, ptr %52, align 8, !tbaa !100
  %54 = load ptr, ptr %9, align 8, !tbaa !8
  %55 = call noundef i32 @_ZN6icu_7720CollationDataBuilder11encodeOneCEElR10UErrorCode(ptr noundef nonnull align 8 dereferenceable(640) %17, i64 noundef %53, ptr noundef nonnull align 4 dereferenceable(4) %54)
  store i32 %55, ptr %5, align 4
  br label %141

56:                                               ; preds = %47
  %57 = load i32, ptr %8, align 4, !tbaa !57
  %58 = icmp eq i32 %57, 2
  br i1 %58, label %59, label %100

59:                                               ; preds = %56
  %60 = getelementptr inbounds nuw %"class.icu_77::CollationDataBuilder", ptr %17, i32 0, i32 14
  %61 = load i8, ptr %60, align 1, !tbaa !128
  %62 = icmp ne i8 %61, 0
  br i1 %62, label %100, label %63

63:                                               ; preds = %59
  call void @llvm.lifetime.start.p0(i64 8, ptr %10) #11
  %64 = load ptr, ptr %7, align 8, !tbaa !93
  %65 = getelementptr inbounds i64, ptr %64, i64 0
  %66 = load i64, ptr %65, align 8, !tbaa !100
  store i64 %66, ptr %10, align 8, !tbaa !100
  call void @llvm.lifetime.start.p0(i64 8, ptr %11) #11
  %67 = load ptr, ptr %7, align 8, !tbaa !93
  %68 = getelementptr inbounds i64, ptr %67, i64 1
  %69 = load i64, ptr %68, align 8, !tbaa !100
  store i64 %69, ptr %11, align 8, !tbaa !100
  call void @llvm.lifetime.start.p0(i64 4, ptr %12) #11
  %70 = load i64, ptr %10, align 8, !tbaa !100
  %71 = ashr i64 %70, 32
  %72 = trunc i64 %71 to i32
  store i32 %72, ptr %12, align 4, !tbaa !57
  %73 = load i64, ptr %10, align 8, !tbaa !100
  %74 = and i64 %73, 72057594037862655
  %75 = icmp eq i64 %74, 83886080
  br i1 %75, label %76, label %96

76:                                               ; preds = %63
  %77 = load i64, ptr %11, align 8, !tbaa !100
  %78 = and i64 %77, -4278190081
  %79 = icmp eq i64 %78, 1280
  br i1 %79, label %80, label %96

80:                                               ; preds = %76
  %81 = load i32, ptr %12, align 4, !tbaa !57
  %82 = icmp ne i32 %81, 0
  br i1 %82, label %83, label %96

83:                                               ; preds = %80
  %84 = load i32, ptr %12, align 4, !tbaa !57
  %85 = load i64, ptr %10, align 8, !tbaa !100
  %86 = trunc i64 %85 to i32
  %87 = and i32 %86, 65280
  %88 = shl i32 %87, 8
  %89 = or i32 %84, %88
  %90 = load i64, ptr %11, align 8, !tbaa !100
  %91 = ashr i64 %90, 16
  %92 = trunc i64 %91 to i32
  %93 = or i32 %89, %92
  %94 = or i32 %93, 192
  %95 = or i32 %94, 4
  store i32 %95, ptr %5, align 4
  store i32 1, ptr %13, align 4
  br label %97

96:                                               ; preds = %80, %76, %63
  store i32 0, ptr %13, align 4
  br label %97

97:                                               ; preds = %96, %83
  call void @llvm.lifetime.end.p0(i64 4, ptr %12) #11
  call void @llvm.lifetime.end.p0(i64 8, ptr %11) #11
  call void @llvm.lifetime.end.p0(i64 8, ptr %10) #11
  %98 = load i32, ptr %13, align 4
  switch i32 %98, label %143 [
    i32 0, label %99
    i32 1, label %141
  ]

99:                                               ; preds = %97
  br label %100

100:                                              ; preds = %99, %59, %56
  br label %101

101:                                              ; preds = %100
  br label %102

102:                                              ; preds = %101
  call void @llvm.lifetime.start.p0(i64 124, ptr %14) #11
  call void @llvm.lifetime.start.p0(i64 4, ptr %15) #11
  store i32 0, ptr %15, align 4, !tbaa !57
  br label %103

103:                                              ; preds = %130, %102
  %104 = load i32, ptr %15, align 4, !tbaa !57
  %105 = load i32, ptr %8, align 4, !tbaa !57
  %106 = icmp eq i32 %104, %105
  br i1 %106, label %107, label %112

107:                                              ; preds = %103
  %108 = getelementptr inbounds [31 x i32], ptr %14, i64 0, i64 0
  %109 = load i32, ptr %8, align 4, !tbaa !57
  %110 = load ptr, ptr %9, align 8, !tbaa !8
  %111 = call noundef i32 @_ZN6icu_7720CollationDataBuilder17encodeExpansion32EPKiiR10UErrorCode(ptr noundef nonnull align 8 dereferenceable(640) %17, ptr noundef %108, i32 noundef %109, ptr noundef nonnull align 4 dereferenceable(4) %110)
  store i32 %111, ptr %5, align 4
  store i32 1, ptr %13, align 4
  br label %133

112:                                              ; preds = %103
  call void @llvm.lifetime.start.p0(i64 4, ptr %16) #11
  %113 = load ptr, ptr %7, align 8, !tbaa !93
  %114 = load i32, ptr %15, align 4, !tbaa !57
  %115 = sext i32 %114 to i64
  %116 = getelementptr inbounds i64, ptr %113, i64 %115
  %117 = load i64, ptr %116, align 8, !tbaa !100
  %118 = call noundef i32 @_ZN6icu_7720CollationDataBuilder17encodeOneCEAsCE32El(i64 noundef %117)
  store i32 %118, ptr %16, align 4, !tbaa !57
  %119 = load i32, ptr %16, align 4, !tbaa !57
  %120 = icmp eq i32 %119, 1
  br i1 %120, label %121, label %122

121:                                              ; preds = %112
  store i32 2, ptr %13, align 4
  br label %127

122:                                              ; preds = %112
  %123 = load i32, ptr %16, align 4, !tbaa !57
  %124 = load i32, ptr %15, align 4, !tbaa !57
  %125 = sext i32 %124 to i64
  %126 = getelementptr inbounds [31 x i32], ptr %14, i64 0, i64 %125
  store i32 %123, ptr %126, align 4, !tbaa !57
  store i32 0, ptr %13, align 4
  br label %127

127:                                              ; preds = %122, %121
  call void @llvm.lifetime.end.p0(i64 4, ptr %16) #11
  %128 = load i32, ptr %13, align 4
  switch i32 %128, label %133 [
    i32 0, label %129
  ]

129:                                              ; preds = %127
  br label %130

130:                                              ; preds = %129
  %131 = load i32, ptr %15, align 4, !tbaa !57
  %132 = add nsw i32 %131, 1
  store i32 %132, ptr %15, align 4, !tbaa !57
  br label %103, !llvm.loop !163

133:                                              ; preds = %127, %107
  call void @llvm.lifetime.end.p0(i64 4, ptr %15) #11
  %134 = load i32, ptr %13, align 4
  switch i32 %134, label %140 [
    i32 2, label %135
  ]

135:                                              ; preds = %133
  %136 = load ptr, ptr %7, align 8, !tbaa !93
  %137 = load i32, ptr %8, align 4, !tbaa !57
  %138 = load ptr, ptr %9, align 8, !tbaa !8
  %139 = call noundef i32 @_ZN6icu_7720CollationDataBuilder15encodeExpansionEPKliR10UErrorCode(ptr noundef nonnull align 8 dereferenceable(640) %17, ptr noundef %136, i32 noundef %137, ptr noundef nonnull align 4 dereferenceable(4) %138)
  store i32 %139, ptr %5, align 4
  store i32 1, ptr %13, align 4
  br label %140

140:                                              ; preds = %135, %133
  call void @llvm.lifetime.end.p0(i64 124, ptr %14) #11
  br label %141

141:                                              ; preds = %140, %97, %50, %45, %40, %29, %22
  %142 = load i32, ptr %5, align 4
  ret i32 %142

143:                                              ; preds = %97
  unreachable
}