; Function Attrs: mustprogress uwtable
define noundef range(i32 2, 1) i32 @_ZN6icu_7720CollationDataBuilder9encodeCEsEPKliR10UErrorCode(ptr noundef nonnull align 8 dereferenceable(640) %0, ptr noundef readonly captures(none) %1, i32 noundef %2, ptr noundef nonnull align 4 dereferenceable(4) %3) unnamed_addr #6 align 2 {
  %5 = alloca [31 x i32], align 16
  %6 = load i32, ptr %3, align 4, !tbaa !76
  %7 = icmp slt i32 %6, 1
  br i1 %7, label %8, label %72

8:                                                ; preds = %4
  %or.cond = icmp ugt i32 %2, 31
  br i1 %or.cond, label %9, label %10

9:                                                ; preds = %8
  store i32 1, ptr %3, align 4, !tbaa !76
  br label %72

10:                                               ; preds = %8
  %11 = getelementptr inbounds nuw i8, ptr %0, i64 32
  %12 = load ptr, ptr %11, align 8, !tbaa !80
  %13 = icmp eq ptr %12, null
  br i1 %13, label %16, label %14

14:                                               ; preds = %10
  %15 = tail call signext i8 @utrie2_isFrozen_77(ptr noundef nonnull %12)
  %.not48 = icmp eq i8 %15, 0
  br i1 %.not48, label %17, label %16

16:                                               ; preds = %14, %10
  store i32 27, ptr %3, align 4, !tbaa !76
  br label %72

17:                                               ; preds = %14
  switch i32 %2, label %.lr.ph.preheader [
    i32 0, label %72
    i32 1, label %18
    i32 2, label %21
  ]

18:                                               ; preds = %17
  %19 = load i64, ptr %1, align 8, !tbaa !89
  %20 = tail call noundef i32 @_ZN6icu_7720CollationDataBuilder11encodeOneCEElR10UErrorCode(ptr noundef nonnull align 8 dereferenceable(640) %0, i64 noundef %19, ptr noundef nonnull align 4 dereferenceable(4) %3)
  br label %72

21:                                               ; preds = %17
  %22 = getelementptr inbounds nuw i8, ptr %0, i64 617
  %23 = load i8, ptr %22, align 1, !tbaa !116
  %.not49 = icmp eq i8 %23, 0
  br i1 %.not49, label %24, label %.lr.ph.preheader

24:                                               ; preds = %21
  %25 = load i64, ptr %1, align 8, !tbaa !89
  %26 = getelementptr inbounds nuw i8, ptr %1, i64 8
  %27 = load i64, ptr %26, align 8, !tbaa !89
  %28 = lshr i64 %25, 32
  %29 = trunc nuw i64 %28 to i32
  %30 = and i64 %25, 72057594037862655
  %31 = icmp eq i64 %30, 83886080
  br i1 %31, label %32, label %.lr.ph.preheader

32:                                               ; preds = %24
  %33 = and i64 %27, -4278190081
  %34 = icmp eq i64 %33, 1280
  %35 = icmp ugt i64 %25, 4294967295
  %or.cond4 = and i1 %35, %34
  br i1 %or.cond4, label %36, label %.lr.ph.preheader

36:                                               ; preds = %32
  %37 = trunc i64 %25 to i32
  %38 = shl i32 %37, 8
  %39 = or disjoint i32 %38, %29
  %40 = lshr i64 %27, 16
  %41 = trunc nuw i64 %40 to i32
  %42 = or disjoint i32 %39, %41
  %43 = or disjoint i32 %42, 196
  br label %72

.lr.ph.preheader:                                 ; preds = %21, %17, %32, %24
  call void @llvm.lifetime.start.p0(i64 124, ptr nonnull %5) #19
  %44 = zext nneg i32 %2 to i64
  br label %.lr.ph

.lr.ph:                                           ; preds = %.lr.ph.preheader, %_ZN6icu_7720CollationDataBuilder17encodeOneCEAsCE32El.exit.thread
  %indvars.iv = phi i64 [ 0, %.lr.ph.preheader ], [ %indvars.iv.next, %_ZN6icu_7720CollationDataBuilder17encodeOneCEAsCE32El.exit.thread ]
  %45 = getelementptr inbounds nuw i64, ptr %1, i64 %indvars.iv
  %46 = load i64, ptr %45, align 8, !tbaa !89
  %47 = lshr i64 %46, 32
  %48 = trunc nuw i64 %47 to i32
  %49 = trunc i64 %46 to i32
  %50 = and i64 %46, 281470698455295
  %51 = icmp eq i64 %50, 0
  br i1 %51, label %_ZN6icu_7720CollationDataBuilder17encodeOneCEAsCE32El.exit, label %52

52:                                               ; preds = %.lr.ph
  %53 = and i64 %46, 1099511627775
  %54 = icmp eq i64 %53, 83887360
  br i1 %54, label %55, label %57

55:                                               ; preds = %52
  %56 = or disjoint i32 %48, 193
  br label %_ZN6icu_7720CollationDataBuilder17encodeOneCEAsCE32El.exit.thread

57:                                               ; preds = %52
  %58 = icmp ult i64 %46, 4294967296
  %59 = and i32 %49, 255
  %60 = icmp eq i32 %59, 0
  %or.cond.i = and i1 %58, %60
  %61 = or i32 %49, 194
  br i1 %or.cond.i, label %_ZN6icu_7720CollationDataBuilder17encodeOneCEAsCE32El.exit.thread, label %_ZN6icu_7720CollationDataBuilder17encodeOneCEAsCE32El.exit.thread59

_ZN6icu_7720CollationDataBuilder17encodeOneCEAsCE32El.exit: ; preds = %.lr.ph
  %62 = lshr i32 %49, 16
  %63 = lshr exact i32 %49, 8
  %64 = and i32 %63, 255
  %65 = or disjoint i32 %62, %64
  %66 = or disjoint i32 %65, %48
  %.not50 = icmp eq i32 %66, 1
  br i1 %.not50, label %_ZN6icu_7720CollationDataBuilder17encodeOneCEAsCE32El.exit.thread59, label %_ZN6icu_7720CollationDataBuilder17encodeOneCEAsCE32El.exit.thread

_ZN6icu_7720CollationDataBuilder17encodeOneCEAsCE32El.exit.thread: ; preds = %57, %55, %_ZN6icu_7720CollationDataBuilder17encodeOneCEAsCE32El.exit
  %.0.i56 = phi i32 [ %66, %_ZN6icu_7720CollationDataBuilder17encodeOneCEAsCE32El.exit ], [ %56, %55 ], [ %61, %57 ]
  %67 = getelementptr inbounds nuw [31 x i32], ptr %5, i64 0, i64 %indvars.iv
  store i32 %.0.i56, ptr %67, align 4, !tbaa !66
  %indvars.iv.next = add nuw nsw i64 %indvars.iv, 1
  %68 = icmp eq i64 %indvars.iv.next, %44
  br i1 %68, label %._crit_edge, label %.lr.ph, !llvm.loop !146

._crit_edge:                                      ; preds = %_ZN6icu_7720CollationDataBuilder17encodeOneCEAsCE32El.exit.thread
  %69 = call noundef i32 @_ZN6icu_7720CollationDataBuilder17encodeExpansion32EPKiiR10UErrorCode(ptr noundef nonnull align 8 dereferenceable(640) %0, ptr noundef nonnull %5, i32 noundef %2, ptr noundef nonnull align 4 dereferenceable(4) %3)
  br label %71

_ZN6icu_7720CollationDataBuilder17encodeOneCEAsCE32El.exit.thread59: ; preds = %57, %_ZN6icu_7720CollationDataBuilder17encodeOneCEAsCE32El.exit
  %70 = tail call noundef i32 @_ZN6icu_7720CollationDataBuilder15encodeExpansionEPKliR10UErrorCode(ptr noundef nonnull align 8 dereferenceable(640) %0, ptr noundef nonnull %1, i32 noundef %2, ptr noundef nonnull align 4 dereferenceable(4) %3)
  br label %71

71:                                               ; preds = %._crit_edge, %_ZN6icu_7720CollationDataBuilder17encodeOneCEAsCE32El.exit.thread59
  %.4 = phi i32 [ %70, %_ZN6icu_7720CollationDataBuilder17encodeOneCEAsCE32El.exit.thread59 ], [ %69, %._crit_edge ]
  call void @llvm.lifetime.end.p0(i64 124, ptr nonnull %5) #19
  br label %72

72:                                               ; preds = %36, %17, %4, %71, %18, %16, %9
  %.0 = phi i32 [ 0, %9 ], [ 0, %16 ], [ %20, %18 ], [ %.4, %71 ], [ %43, %36 ], [ 0, %4 ], [ %2, %17 ]
  ret i32 %.0
}